target datalayout = "e-m:e-p270:32:32-p271:32:32-p272:64:64-i64:64-i128:128-f80:128-n8:16:32:64-S128"
target triple = "x86_64-pc-linux-gnu"

@proto_register_jfif.ett = internal global [6 x ptr] [ptr @ett_jfif, ptr @ett_marker_segment, ptr @ett_details, ptr @ett_ifd, ptr @ett_rational, ptr @ett_srational], align 16
@.str.148 = private unnamed_addr constant [29 x i8] c"JPEG File Interchange Format\00", align 1
@.str.149 = private unnamed_addr constant [18 x i8] c"JFIF (JPEG) image\00", align 1
@.str.150 = private unnamed_addr constant [11 x i8] c"image-jfif\00", align 1
@proto_jfif = internal global i32 0, align 4

; Function Attrs: null_pointer_is_valid sspstrong uwtable
define hidden void @proto_register_jfif() #0 {
  %1 = alloca ptr, align 8
  call void @llvm.lifetime.start.p0(i64 8, ptr %1) #4
  %2 = call i32 @proto_register_protocol(ptr noundef @.str.148, ptr noundef @.str.149, ptr noundef @.str.150)
  store i32 %2, ptr @proto_jfif, align 4
  %3 = load i32, ptr @proto_jfif, align 4
  call void @proto_register_field_array(i32 noundef %3, ptr noundef @proto_register_jfif.hf, i32 noundef 62)
  call void @proto_register_subtree_array(ptr noundef @proto_register_jfif.ett, i32 noundef 6)
  %4 = load i32, ptr @proto_jfif, align 4
  %5 = call ptr @expert_register_protocol(i32 noundef %4)
  store ptr %5, ptr %1, align 8
  %6 = load ptr, ptr %1, align 8
  call void @expert_register_field_array(ptr noundef %6, ptr noundef @proto_register_jfif.ei, i32 noundef 4)
  %7 = load i32, ptr @proto_jfif, align 4
  %8 = call ptr @register_dissector(ptr noundef @.str.150, ptr noundef @dissect_jfif, i32 noundef %7)
  call void @llvm.lifetime.end.p0(i64 8, ptr %1) #4
  ret void
}